; Function Attrs: mustprogress uwtable
define hidden void @_ZN7Imf_3_29InputFile19multiPartInitializeEPNS_13InputPartDataE(ptr nocapture noundef nonnull readonly align 8 dereferenceable(16) %this, ptr noundef nonnull %part) local_unnamed_addr #3 align 2 {
entry:
  %mutex = getelementptr inbounds i8, ptr %part, i64 72
  %0 = load ptr, ptr %mutex, align 8
  %_data = getelementptr inbounds i8, ptr %this, i64 8
  %1 = load ptr, ptr %_data, align 8
  %_streamData = getelementptr inbounds i8, ptr %1, i64 248
  store ptr %0, ptr %_streamData, align 8
  %version = getelementptr inbounds i8, ptr %part, i64 64
  %2 = load i32, ptr %version, align 8
  %3 = load ptr, ptr %_data, align 8
  %version3 = getelementptr inbounds i8, ptr %3, i64 96
  store i32 %2, ptr %version3, align 8
  %4 = load ptr, ptr %_data, align 8
  %header5 = getelementptr inbounds i8, ptr %4, i64 40
  %call = tail call noundef nonnull align 8 dereferenceable(49) ptr @_ZN7Imf_3_26HeaderaSERKS0_(ptr noundef nonnull align 8 dereferenceable(49) %header5, ptr noundef nonnull align 8 dereferenceable(49) %part)
  %partNumber = getelementptr inbounds i8, ptr %part, i64 60
  %5 = load i32, ptr %partNumber, align 4
  %6 = load ptr, ptr %_data, align 8
  %partNumber7 = getelementptr inbounds i8, ptr %6, i64 220
  store i32 %5, ptr %partNumber7, align 4
  %7 = load ptr, ptr %_data, align 8
  %part9 = getelementptr inbounds i8, ptr %7, i64 224
  store ptr %part, ptr %part9, align 8
  tail call void @_ZN7Imf_3_29InputFile10initializeEv(ptr noundef nonnull align 8 dereferenceable(16) %this)
  ret void
}